; Function Attrs: mustprogress uwtable
define hidden noundef zeroext i1 @_ZN11OpenImageIO6v3_1_010HeifOutput14write_scanlineEiiNS0_8TypeDescEPKvl(ptr noundef nonnull align 8 dereferenceable(320) %0, i32 noundef %1, i32 %2, i64 %3, ptr noundef %4, i64 noundef %5) unnamed_addr #5 align 2 personality ptr @__gxx_personality_v0 {
  %7 = alloca i32, align 4
  %8 = getelementptr inbounds nuw i8, ptr %0, i64 272
  %9 = tail call noundef ptr @_ZN11OpenImageIO6v3_1_011ImageOutput18to_native_scanlineENS0_8TypeDescEPKvlRSt6vectorIhSaIhEEjii(ptr noundef nonnull align 8 dereferenceable(184) %0, i64 %3, ptr noundef %4, i64 noundef %5, ptr noundef nonnull align 8 dereferenceable(24) %8, i32 noundef 0, i32 noundef 0, i32 noundef 0)
  call void @llvm.lifetime.start.p0(i64 4, ptr nonnull %7) #27
  store i32 0, ptr %7, align 4, !tbaa !34
  %10 = getelementptr inbounds nuw i8, ptr %0, i64 240
  %11 = load ptr, ptr %10, align 8, !tbaa !92
  %12 = invoke ptr @heif_image_get_plane(ptr noundef %11, i32 noundef 10, ptr noundef nonnull %7)
          to label %_ZN4heif5Image9get_planeE12heif_channelPi.exit unwind label %13

13:                                               ; preds = %6
  %14 = landingpad { ptr, i32 }
          catch ptr null
  %15 = extractvalue { ptr, i32 } %14, 0
  call void @__clang_call_terminate(ptr %15) #30
  unreachable

_ZN4heif5Image9get_planeE12heif_channelPi.exit:   ; preds = %6
  %16 = load i32, ptr %7, align 4, !tbaa !34
  %17 = getelementptr inbounds nuw i8, ptr %0, i64 12
  %18 = load i32, ptr %17, align 4, !tbaa !104
  %19 = sub nsw i32 %1, %18
  %20 = mul nsw i32 %19, %16
  %21 = sext i32 %20 to i64
  %22 = getelementptr inbounds i8, ptr %12, i64 %21
  %23 = sext i32 %16 to i64
  call void @llvm.memcpy.p0.p0.i64(ptr align 1 %22, ptr align 1 %9, i64 %23, i1 false)
  call void @llvm.lifetime.end.p0(i64 4, ptr nonnull %7) #27
  ret i1 true
}